; Function Attrs: null_pointer_is_valid sspstrong uwtable
define void @reset_conversation_table_data(ptr noundef captures(address_is_null) %0) local_unnamed_addr #1 {
  %.not = icmp eq ptr %0, null
  br i1 %.not, label %40, label %2

2:                                                ; preds = %1
  %3 = getelementptr inbounds nuw i8, ptr %0, i64 8
  %4 = load ptr, ptr %3, align 8
  %.not15 = icmp eq ptr %4, null
  br i1 %.not15, label %36, label %.preheader

.preheader:                                       ; preds = %2
  %5 = getelementptr inbounds nuw i8, ptr %4, i64 8
  %6 = load i32, ptr %5, align 8
  %.not21 = icmp eq i32 %6, 0
  br i1 %.not21, label %._crit_edge, label %.lr.ph

.lr.ph:                                           ; preds = %.preheader, %free_address.exit19
  %indvars.iv = phi i64 [ %indvars.iv.next, %free_address.exit19 ], [ 0, %.preheader ]
  %7 = phi ptr [ %30, %free_address.exit19 ], [ %4, %.preheader ]
  %8 = load ptr, ptr %7, align 8
  %9 = getelementptr %struct._conversation_item_t, ptr %8, i64 %indvars.iv
  %10 = getelementptr inbounds nuw i8, ptr %9, i64 8
  %11 = load i32, ptr %10, align 8
  %.not.i.i = icmp eq i32 %11, 0
  br i1 %.not.i.i, label %free_address.exit, label %12

12:                                               ; preds = %.lr.ph
  %13 = getelementptr inbounds nuw i8, ptr %9, i64 12
  %14 = load i32, ptr %13, align 4
  %15 = icmp sgt i32 %14, 0
  br i1 %15, label %16, label %free_address.exit

16:                                               ; preds = %12
  %17 = getelementptr inbounds nuw i8, ptr %9, i64 24
  %18 = load ptr, ptr %17, align 8
  %.not6.i.i = icmp eq ptr %18, null
  br i1 %.not6.i.i, label %free_address.exit, label %19

19:                                               ; preds = %16
  tail call void @wmem_free(ptr noundef null, ptr noundef nonnull %18)
  br label %free_address.exit

free_address.exit:                                ; preds = %.lr.ph, %12, %16, %19
  tail call void @llvm.memset.p0.i64(ptr noundef nonnull align 8 dereferenceable(24) %10, i8 0, i64 24, i1 false)
  %20 = getelementptr inbounds nuw i8, ptr %9, i64 32
  %21 = load i32, ptr %20, align 8
  %.not.i.i17 = icmp eq i32 %21, 0
  br i1 %.not.i.i17, label %free_address.exit19, label %22

22:                                               ; preds = %free_address.exit
  %23 = getelementptr inbounds nuw i8, ptr %9, i64 36
  %24 = load i32, ptr %23, align 4
  %25 = icmp sgt i32 %24, 0
  br i1 %25, label %26, label %free_address.exit19

26:                                               ; preds = %22
  %27 = getelementptr inbounds nuw i8, ptr %9, i64 48
  %28 = load ptr, ptr %27, align 8
  %.not6.i.i18 = icmp eq ptr %28, null
  br i1 %.not6.i.i18, label %free_address.exit19, label %29

29:                                               ; preds = %26
  tail call void @wmem_free(ptr noundef null, ptr noundef nonnull %28)
  br label %free_address.exit19

free_address.exit19:                              ; preds = %free_address.exit, %22, %26, %29
  tail call void @llvm.memset.p0.i64(ptr noundef nonnull align 8 dereferenceable(24) %20, i8 0, i64 24, i1 false)
  %indvars.iv.next = add nuw nsw i64 %indvars.iv, 1
  %30 = load ptr, ptr %3, align 8
  %31 = getelementptr inbounds nuw i8, ptr %30, i64 8
  %32 = load i32, ptr %31, align 8
  %33 = zext i32 %32 to i64
  %34 = icmp samesign ult i64 %indvars.iv.next, %33
  br i1 %34, label %.lr.ph, label %._crit_edge, !llvm.loop !8

._crit_edge:                                      ; preds = %free_address.exit19, %.preheader
  %.lcssa = phi ptr [ %4, %.preheader ], [ %30, %free_address.exit19 ]
  %35 = tail call ptr @g_array_free(ptr noundef %.lcssa, i32 noundef 1)
  br label %36

36:                                               ; preds = %._crit_edge, %2
  %37 = load ptr, ptr %0, align 8
  %.not16 = icmp eq ptr %37, null
  br i1 %.not16, label %39, label %38

38:                                               ; preds = %36
  tail call void @g_hash_table_destroy(ptr noundef nonnull %37)
  br label %39

39:                                               ; preds = %38, %36
  tail call void @llvm.memset.p0.i64(ptr noundef nonnull align 8 dereferenceable(16) %0, i8 0, i64 16, i1 false)
  br label %40

40:                                               ; preds = %1, %39
  ret void
}